; Function Attrs: mustprogress nounwind uwtable
define void @_ZN18OpenImageIO_v2_6_010ImageInput13ioproxy_clearEv(ptr nocapture noundef nonnull readonly align 8 dereferenceable(184) %this) local_unnamed_addr #3 align 2 {
entry:
  %add.ptr.i.i.i.i.i.i = getelementptr inbounds i8, ptr %this, i64 176
  %0 = load ptr, ptr %add.ptr.i.i.i.i.i.i, align 8
  %m_io = getelementptr inbounds i8, ptr %0, i64 56
  store ptr null, ptr %m_io, align 8
  %1 = load ptr, ptr %add.ptr.i.i.i.i.i.i, align 8
  %m_io_local = getelementptr inbounds i8, ptr %1, i64 64
  %2 = load ptr, ptr %m_io_local, align 8
  store ptr null, ptr %m_io_local, align 8
  %tobool.not.i.i = icmp eq ptr %2, null
  br i1 %tobool.not.i.i, label %_ZNSt10unique_ptrIN18OpenImageIO_v2_6_010Filesystem7IOProxyESt14default_deleteIS2_EE5resetEPS2_.exit, label %_ZNKSt14default_deleteIN18OpenImageIO_v2_6_010Filesystem7IOProxyEEclEPS2_.exit.i.i

_ZNKSt14default_deleteIN18OpenImageIO_v2_6_010Filesystem7IOProxyEEclEPS2_.exit.i.i: ; preds = %entry
  %vtable.i.i.i = load ptr, ptr %2, align 8
  %vfn.i.i.i = getelementptr inbounds i8, ptr %vtable.i.i.i, i64 8
  %3 = load ptr, ptr %vfn.i.i.i, align 8
  tail call void %3(ptr noundef nonnull align 8 dereferenceable(88) %2) #26
  br label %_ZNSt10unique_ptrIN18OpenImageIO_v2_6_010Filesystem7IOProxyESt14default_deleteIS2_EE5resetEPS2_.exit

_ZNSt10unique_ptrIN18OpenImageIO_v2_6_010Filesystem7IOProxyESt14default_deleteIS2_EE5resetEPS2_.exit: ; preds = %entry, %_ZNKSt14default_deleteIN18OpenImageIO_v2_6_010Filesystem7IOProxyEEclEPS2_.exit.i.i
  ret void
}